; Function Attrs: mustprogress uwtable
define noundef i32 @_ZN8facebook5velox4core18LocalPartitionNode12typeFromNameERKNSt7__cxx1112basic_stringIcSt11char_traitsIcESaIcEEE(ptr noundef nonnull align 8 dereferenceable(32) %name) local_unnamed_addr #0 align 2 personality ptr @__gxx_personality_v0 {
entry:
  %ref.tmp = alloca %"class.std::unordered_map.413", align 8
  %0 = load atomic i8, ptr @_ZGVZN8facebook5velox4core18LocalPartitionNode12typeFromNameERKNSt7__cxx1112basic_stringIcSt11char_traitsIcESaIcEEEE6kTypesB5cxx11 acquire, align 8
  %guard.uninitialized = icmp eq i8 %0, 0
  br i1 %guard.uninitialized, label %init.check, label %init.end, !prof !38

init.check:                                       ; preds = %entry
  %1 = tail call i32 @__cxa_guard_acquire(ptr nonnull @_ZGVZN8facebook5velox4core18LocalPartitionNode12typeFromNameERKNSt7__cxx1112basic_stringIcSt11char_traitsIcESaIcEEEE6kTypesB5cxx11) #30
  %tobool.not = icmp eq i32 %1, 0
  br i1 %tobool.not, label %init.end, label %init

init:                                             ; preds = %init.check
  invoke fastcc void @_ZN8facebook5velox4core12_GLOBAL__N_123localPartitionTypeNamesB5cxx11Ev(ptr noalias nonnull align 8 %ref.tmp)
          to label %invoke.cont unwind label %lpad

invoke.cont:                                      ; preds = %init
  invoke fastcc void @_ZN8facebook5velox4core12_GLOBAL__N_19invertMapINS1_18LocalPartitionNode4TypeENSt7__cxx1112basic_stringIcSt11char_traitsIcESaIcEEEEESt13unordered_mapIT0_T_St4hashISD_ESt8equal_toISD_ESaISt4pairIKSD_SE_EEERKSC_ISE_SD_SF_ISE_ESH_ISE_ESaISJ_IKSE_SD_EEE(ptr noundef nonnull align 8 dereferenceable(56) %ref.tmp)
          to label %invoke.cont2 unwind label %lpad1

invoke.cont2:                                     ; preds = %invoke.cont
  call void @_ZNSt13unordered_mapIN8facebook5velox4core18LocalPartitionNode4TypeENSt7__cxx1112basic_stringIcSt11char_traitsIcESaIcEEESt4hashIS4_ESt8equal_toIS4_ESaISt4pairIKS4_SA_EEED2Ev(ptr noundef nonnull align 8 dereferenceable(56) %ref.tmp) #30
  %2 = call i32 @__cxa_atexit(ptr nonnull @_ZNSt13unordered_mapINSt7__cxx1112basic_stringIcSt11char_traitsIcESaIcEEEN8facebook5velox4core18LocalPartitionNode4TypeESt4hashIS5_ESt8equal_toIS5_ESaISt4pairIKS5_SA_EEED2Ev, ptr nonnull @_ZZN8facebook5velox4core18LocalPartitionNode12typeFromNameERKNSt7__cxx1112basic_stringIcSt11char_traitsIcESaIcEEEE6kTypesB5cxx11, ptr nonnull @__dso_handle) #30
  call void @__cxa_guard_release(ptr nonnull @_ZGVZN8facebook5velox4core18LocalPartitionNode12typeFromNameERKNSt7__cxx1112basic_stringIcSt11char_traitsIcESaIcEEEE6kTypesB5cxx11) #30
  br label %init.end

init.end:                                         ; preds = %invoke.cont2, %init.check, %entry
  %call.i.i = call ptr @_ZNKSt10_HashtableINSt7__cxx1112basic_stringIcSt11char_traitsIcESaIcEEESt4pairIKS5_N8facebook5velox4core18LocalPartitionNode4TypeEESaISD_ENSt8__detail10_Select1stESt8equal_toIS5_ESt4hashIS5_ENSF_18_Mod_range_hashingENSF_20_Default_ranged_hashENSF_20_Prime_rehash_policyENSF_17_Hashtable_traitsILb1ELb0ELb1EEEE4findERS7_(ptr noundef nonnull align 8 dereferenceable(56) @_ZZN8facebook5velox4core18LocalPartitionNode12typeFromNameERKNSt7__cxx1112basic_stringIcSt11char_traitsIcESaIcEEEE6kTypesB5cxx11, ptr noundef nonnull align 8 dereferenceable(32) %name)
  %tobool.not.i.i = icmp eq ptr %call.i.i, null
  br i1 %tobool.not.i.i, label %if.then.i.i, label %_ZNKSt13unordered_mapINSt7__cxx1112basic_stringIcSt11char_traitsIcESaIcEEEN8facebook5velox4core18LocalPartitionNode4TypeESt4hashIS5_ESt8equal_toIS5_ESaISt4pairIKS5_SA_EEE2atERSG_.exit

if.then.i.i:                                      ; preds = %init.end
  call void @_ZSt20__throw_out_of_rangePKc(ptr noundef nonnull @.str.230) #33
  unreachable

_ZNKSt13unordered_mapINSt7__cxx1112basic_stringIcSt11char_traitsIcESaIcEEEN8facebook5velox4core18LocalPartitionNode4TypeESt4hashIS5_ESt8equal_toIS5_ESaISt4pairIKS5_SA_EEE2atERSG_.exit: ; preds = %init.end
  %second.i.i = getelementptr inbounds i8, ptr %call.i.i, i64 40
  %3 = load i32, ptr %second.i.i, align 4
  ret i32 %3

lpad:                                             ; preds = %init
  %4 = landingpad { ptr, i32 }
          cleanup
  br label %ehcleanup

lpad1:                                            ; preds = %invoke.cont
  %5 = landingpad { ptr, i32 }
          cleanup
  call void @_ZNSt13unordered_mapIN8facebook5velox4core18LocalPartitionNode4TypeENSt7__cxx1112basic_stringIcSt11char_traitsIcESaIcEEESt4hashIS4_ESt8equal_toIS4_ESaISt4pairIKS4_SA_EEED2Ev(ptr noundef nonnull align 8 dereferenceable(56) %ref.tmp) #30
  br label %ehcleanup

ehcleanup:                                        ; preds = %lpad1, %lpad
  %.pn = phi { ptr, i32 } [ %5, %lpad1 ], [ %4, %lpad ]
  call void @__cxa_guard_abort(ptr nonnull @_ZGVZN8facebook5velox4core18LocalPartitionNode12typeFromNameERKNSt7__cxx1112basic_stringIcSt11char_traitsIcESaIcEEEE6kTypesB5cxx11) #30
  resume { ptr, i32 } %.pn
}